; Function Attrs: mustprogress uwtable
define void @_ZN12colvarmodule13memory_stream11read_objectINS_8vector1dIdEEEEvRT_(ptr noundef nonnull align 8 captures(none) dereferenceable(72) %0, ptr noundef nonnull align 8 dereferenceable(24) %1) local_unnamed_addr #0 align 2 personality ptr @__gxx_personality_v0 {
  %3 = getelementptr inbounds nuw i8, ptr %0, i64 56
  %4 = load i32, ptr %3, align 8, !tbaa !21
  %5 = or i32 %4, 2
  store i32 %5, ptr %3, align 8, !tbaa !21
  %6 = getelementptr inbounds nuw i8, ptr %0, i64 40
  %7 = load i64, ptr %6, align 8, !tbaa !27
  %8 = getelementptr inbounds nuw i8, ptr %0, i64 64
  %9 = load i64, ptr %8, align 8, !tbaa !33
  %10 = sub i64 %7, %9
  %11 = icmp ugt i64 %10, 7
  br i1 %11, label %12, label %_ZN12colvarmodule13memory_stream11read_vectorIdEEvRSt6vectorIT_SaIS3_EE.exit

12:                                               ; preds = %2
  %13 = getelementptr inbounds nuw i8, ptr %0, i64 8
  %14 = load ptr, ptr %13, align 8, !tbaa !34
  %.not.i.i.i = icmp eq ptr %14, null
  %15 = getelementptr inbounds nuw i8, ptr %0, i64 16
  %16 = load ptr, ptr %15, align 8
  %17 = select i1 %.not.i.i.i, ptr %16, ptr %14
  %18 = getelementptr inbounds nuw i8, ptr %17, i64 %9
  %.0.copyload.i = load i64, ptr %18, align 1
  %19 = add i64 %9, 8
  store i64 %19, ptr %8, align 8, !tbaa !33
  %20 = shl i64 %.0.copyload.i, 3
  %21 = sub i64 %7, %19
  %.not.i = icmp ugt i64 %20, %21
  br i1 %.not.i, label %46, label %22

22:                                               ; preds = %12
  %23 = getelementptr inbounds nuw i8, ptr %1, i64 8
  %24 = load ptr, ptr %23, align 8, !tbaa !29
  %25 = load ptr, ptr %1, align 8, !tbaa !32
  %26 = ptrtoint ptr %24 to i64
  %27 = ptrtoint ptr %25 to i64
  %28 = sub i64 %26, %27
  %29 = ashr exact i64 %28, 3
  %30 = icmp ugt i64 %.0.copyload.i, %29
  br i1 %30, label %31, label %33

31:                                               ; preds = %22
  %32 = sub nuw i64 %.0.copyload.i, %29
  tail call void @_ZNSt6vectorIdSaIdEE17_M_default_appendEm(ptr noundef nonnull align 8 dereferenceable(24) %1, i64 noundef %32)
  %.pre.i = load ptr, ptr %1, align 8, !tbaa !32
  %.pre8.i = load ptr, ptr %13, align 8, !tbaa !34
  %.pre9.i = load i64, ptr %8, align 8, !tbaa !33
  br label %_ZNSt6vectorIdSaIdEE6resizeEm.exit.i

33:                                               ; preds = %22
  %34 = icmp ult i64 %.0.copyload.i, %29
  br i1 %34, label %35, label %_ZNSt6vectorIdSaIdEE6resizeEm.exit.i

35:                                               ; preds = %33
  %36 = getelementptr inbounds nuw double, ptr %25, i64 %.0.copyload.i
  %.not.i.i6.i = icmp eq ptr %24, %36
  br i1 %.not.i.i6.i, label %_ZNSt6vectorIdSaIdEE6resizeEm.exit.i, label %37

37:                                               ; preds = %35
  store ptr %36, ptr %23, align 8, !tbaa !29
  br label %_ZNSt6vectorIdSaIdEE6resizeEm.exit.i

_ZNSt6vectorIdSaIdEE6resizeEm.exit.i:             ; preds = %37, %35, %33, %31
  %38 = phi i64 [ %.pre9.i, %31 ], [ %19, %33 ], [ %19, %35 ], [ %19, %37 ]
  %39 = phi ptr [ %.pre8.i, %31 ], [ %14, %33 ], [ %14, %35 ], [ %14, %37 ]
  %40 = phi ptr [ %.pre.i, %31 ], [ %25, %33 ], [ %25, %35 ], [ %25, %37 ]
  %.not.i.i7.i = icmp eq ptr %39, null
  %41 = load ptr, ptr %15, align 8
  %42 = select i1 %.not.i.i7.i, ptr %41, ptr %39
  %43 = getelementptr inbounds nuw i8, ptr %42, i64 %38
  tail call void @llvm.memcpy.p0.p0.i64(ptr align 8 %40, ptr align 1 %43, i64 %20, i1 false)
  %44 = load i64, ptr %8, align 8, !tbaa !33
  %45 = add i64 %44, %20
  store i64 %45, ptr %8, align 8, !tbaa !33
  br label %_ZN12colvarmodule13memory_stream11read_vectorIdEEvRSt6vectorIT_SaIS3_EE.exit.sink.split

46:                                               ; preds = %12
  %47 = or i32 %4, 6
  br label %_ZN12colvarmodule13memory_stream11read_vectorIdEEvRSt6vectorIT_SaIS3_EE.exit.sink.split

_ZN12colvarmodule13memory_stream11read_vectorIdEEvRSt6vectorIT_SaIS3_EE.exit.sink.split: ; preds = %46, %_ZNSt6vectorIdSaIdEE6resizeEm.exit.i
  %.sink = phi i32 [ 0, %_ZNSt6vectorIdSaIdEE6resizeEm.exit.i ], [ %47, %46 ]
  store i32 %.sink, ptr %3, align 8, !tbaa !21
  br label %_ZN12colvarmodule13memory_stream11read_vectorIdEEvRSt6vectorIT_SaIS3_EE.exit

_ZN12colvarmodule13memory_stream11read_vectorIdEEvRSt6vectorIT_SaIS3_EE.exit: ; preds = %_ZN12colvarmodule13memory_stream11read_vectorIdEEvRSt6vectorIT_SaIS3_EE.exit.sink.split, %2
  ret void
}